target datalayout = "e-m:e-p270:32:32-p271:32:32-p272:64:64-i64:64-i128:128-f80:128-n8:16:32:64-S128"
target triple = "x86_64-pc-linux-gnu"

%struct.mbedtls_hmac_drbg_context = type { %struct.mbedtls_md_context_t, [64 x i8], i32, i64, i32, i32, ptr, ptr }
%struct.mbedtls_md_context_t = type { ptr, ptr, ptr }

; Function Attrs: nounwind uwtable
define hidden void @mbedtls_hmac_drbg_free(ptr noundef %0) #0 {
  %2 = alloca ptr, align 8
  store ptr %0, ptr %2, align 8, !tbaa !3
  %3 = load ptr, ptr %2, align 8, !tbaa !3
  %4 = icmp eq ptr %3, null
  br i1 %4, label %5, label %6

5:                                                ; preds = %1
  br label %12

6:                                                ; preds = %1
  %7 = load ptr, ptr %2, align 8, !tbaa !3
  %8 = getelementptr inbounds nuw %struct.mbedtls_hmac_drbg_context, ptr %7, i32 0, i32 0
  call void @mbedtls_md_free(ptr noundef %8)
  %9 = load ptr, ptr %2, align 8, !tbaa !3
  call void @mbedtls_platform_zeroize(ptr noundef %9, i64 noundef 128)
  %10 = load ptr, ptr %2, align 8, !tbaa !3
  %11 = getelementptr inbounds nuw %struct.mbedtls_hmac_drbg_context, ptr %10, i32 0, i32 5
  store i32 10000, ptr %11, align 4, !tbaa !8
  br label %12

12:                                               ; preds = %6, %5
  ret void
}