; Function Attrs: nounwind uwtable
define hidden void @mbedtls_hmac_drbg_free(ptr noundef %0) local_unnamed_addr #2 {
  %2 = icmp eq ptr %0, null
  br i1 %2, label %5, label %3

3:                                                ; preds = %1
  tail call void @mbedtls_md_free(ptr noundef nonnull %0) #12
  tail call void @mbedtls_platform_zeroize(ptr noundef nonnull %0, i64 noundef 128) #12
  %4 = getelementptr inbounds nuw i8, ptr %0, i64 108
  store i32 10000, ptr %4, align 4, !tbaa !3
  br label %5

5:                                                ; preds = %1, %3
  ret void
}